Certificate:
    Data:
        Version: 3 (0x2)
        Serial Number: 1 (0x1)
    Signature Algorithm: sha256WithRSAEncryption
        Issuer: C=PT, ST=Coimbra, L=Coimbra, O=UC, OU=DEI, CN=STI CA/emailAddress=alexx.da95@gmail.com
        Validity
            Not Before: Mar  8 16:17:13 2023 GMT
            Not After : Mar  7 16:17:13 2024 GMT
        Subject: C=PT, ST=Coimbra, O=UC, OU=DEI, CN=gw-vpn.dei.uc.pt/emailAddress=alexx.da95@gmail.com
        Subject Public Key Info:
            Public Key Algorithm: rsaEncryption
                Public-Key: (2048 bit)
                Modulus:
                    00:b0:2b:2b:ae:71:01:97:14:fa:6c:13:87:05:67:
                    c2:f4:7b:c6:f4:79:87:ab:90:5f:9f:3d:27:c7:32:
                    80:db:00:b7:93:ff:39:4c:54:fb:15:7a:70:a7:7d:
                    cf:af:2d:dd:35:ad:61:8e:7c:73:d3:cb:e2:34:61:
                    8d:35:70:8d:9b:18:23:cd:45:0e:c9:be:5d:f6:1e:
                    88:70:df:77:d6:86:a5:4e:38:22:92:20:b6:17:e8:
                    f9:bd:36:ac:a0:79:45:a9:a5:51:cc:a8:86:4b:fd:
                    64:f2:56:6a:bf:71:82:c9:ce:91:82:bc:f9:74:25:
                    33:05:8e:1e:d4:52:33:58:47:4f:11:6e:5a:f7:0f:
                    4c:91:20:65:18:da:e3:3e:ef:56:9b:7b:01:87:5a:
                    e7:88:77:a1:4c:ac:ce:b4:34:0c:1d:d3:49:0a:a9:
                    84:d5:8e:fc:f3:7d:76:58:f5:29:dd:c9:17:be:07:
                    48:78:86:fe:d4:14:37:e5:fc:e9:c9:8b:1a:4e:02:
                    8c:53:ff:1b:ea:a4:9b:41:ee:ec:4d:ab:68:5c:ad:
                    f9:d9:80:4c:d5:cc:2e:a7:fb:64:bb:6d:cf:fe:3e:
                    0b:ac:57:bd:c5:ac:60:0f:f6:3d:9c:a0:68:2d:bf:
                    fc:41:90:26:49:54:f4:2a:bd:08:7d:04:25:ce:a5:
                    d8:1f
                Exponent: 65537 (0x10001)
        X509v3 extensions:
            Authority Information Access: 
                OCSP - URI:http://ocsp.dei.uc.pt:81

            X509v3 Basic Constraints: 
                CA:FALSE
            X509v3 Key Usage: 
                Digital Signature, Key Encipherment
            Netscape Comment: 
                OpenSSL Generated Certificate
            X509v3 Subject Key Identifier: 
                2F:26:E5:DD:36:13:A3:10:19:AA:85:8A:B0:30:C2:19:A2:CC:69:A7
            X509v3 Authority Key Identifier: 
                DirName:/C=PT/ST=Coimbra/L=Coimbra/O=UC/OU=DEI/CN=STI CA/emailAddress=alexx.da95@gmail.com
                serial:F0:C6:16:35:A9:06:30:01

            X509v3 Extended Key Usage: 
                TLS Web Client Authentication, TLS Web Server Authentication
    Signature Algorithm: sha256WithRSAEncryption
         af:e8:58:7a:62:a4:42:9f:03:cd:84:10:ce:40:b2:c5:3f:e9:
         17:a6:f4:83:f7:f6:a1:26:c4:6e:d1:a5:0c:1b:82:4e:d4:c2:
         a0:1a:3d:f1:6a:43:9a:81:c5:fe:45:1a:c2:74:0f:2f:3a:d9:
         cc:3c:39:04:76:e9:45:98:92:0f:8a:87:89:c0:a1:ab:78:cd:
         d8:05:d6:16:00:37:e4:54:90:21:e6:3f:42:8f:12:89:ac:be:
         ee:da:38:94:ed:b8:61:5d:e4:e7:be:84:01:fc:c2:44:fc:99:
         91:31:7b:70:19:cd:79:13:5d:60:87:b9:e5:16:8f:d9:a1:3e:
         4b:39:c4:9e:97:9e:0b:02:b0:49:9e:e0:71:39:55:6f:6c:4d:
         f8:6c:c8:2e:fb:89:83:ad:14:56:30:0a:0e:d2:d7:d9:8b:7a:
         5a:34:96:81:3b:d2:1f:47:1e:55:d7:95:c9:89:32:71:48:e7:
         e3:8a:45:17:7c:16:d1:27:43:85:ab:96:8f:3e:17:e3:df:74:
         3a:ea:87:1b:ce:70:98:03:13:f9:6f:85:a6:8d:8b:58:59:8f:
         c1:fd:8d:c2:8d:b1:c4:39:e8:4f:1b:0e:c4:1c:4a:64:1d:fd:
         69:4f:cc:26:8a:bb:fc:4f:43:bd:62:79:47:35:74:48:95:b8:
         db:e7:b3:f3
-----BEGIN CERTIFICATE-----
MIIE3DCCA8SgAwIBAgIBATANBgkqhkiG9w0BAQsFADCBgjELMAkGA1UEBhMCUFQx
EDAOBgNVBAgMB0NvaW1icmExEDAOBgNVBAcMB0NvaW1icmExCzAJBgNVBAoMAlVD
MQwwCgYDVQQLDANERUkxDzANBgNVBAMMBlNUSSBDQTEjMCEGCSqGSIb3DQEJARYU
YWxleHguZGE5NUBnbWFpbC5jb20wHhcNMjMwMzA4MTYxNzEzWhcNMjQwMzA3MTYx
NzEzWjB6MQswCQYDVQQGEwJQVDEQMA4GA1UECAwHQ29pbWJyYTELMAkGA1UECgwC
VUMxDDAKBgNVBAsMA0RFSTEZMBcGA1UEAwwQZ3ctdnBuLmRlaS51Yy5wdDEjMCEG
CSqGSIb3DQEJARYUYWxleHguZGE5NUBnbWFpbC5jb20wggEiMA0GCSqGSIb3DQEB
AQUAA4IBDwAwggEKAoIBAQCwKyuucQGXFPpsE4cFZ8L0e8b0eYerkF+fPSfHMoDb
ALeT/zlMVPsVenCnfc+vLd01rWGOfHPTy+I0YY01cI2bGCPNRQ7Jvl32Hohw33fW
hqVOOCKSILYX6Pm9NqygeUWppVHMqIZL/WTyVmq/cYLJzpGCvPl0JTMFjh7UUjNY
R08Rblr3D0yRIGUY2uM+71abewGHWueId6FMrM60NAwd00kKqYTVjvzzfXZY9Snd
yRe+B0h4hv7UFDfl/OnJixpOAoxT/xvqpJtB7uxNq2hcrfnZgEzVzC6n+2S7bc/+
PgusV73FrGAP9j2coGgtv/xBkCZJVPQqvQh9BCXOpdgfAgMBAAGjggFiMIIBXjA0
BggrBgEFBQcBAQQoMCYwJAYIKwYBBQUHMAGGGGh0dHA6Ly9vY3NwLmRlaS51Yy5w
dDo4MTAJBgNVHRMEAjAAMAsGA1UdDwQEAwIFoDAsBglghkgBhvhCAQ0EHxYdT3Bl
blNTTCBHZW5lcmF0ZWQgQ2VydGlmaWNhdGUwHQYDVR0OBBYEFC8m5d02E6MQGaqF
irAwwhmizGmnMIGhBgNVHSMEgZkwgZahgYikgYUwgYIxCzAJBgNVBAYTAlBUMRAw
DgYDVQQIDAdDb2ltYnJhMRAwDgYDVQQHDAdDb2ltYnJhMQswCQYDVQQKDAJVQzEM
MAoGA1UECwwDREVJMQ8wDQYDVQQDDAZTVEkgQ0ExIzAhBgkqhkiG9w0BCQEWFGFs
ZXh4LmRhOTVAZ21haWwuY29tggkA8MYWNakGMAEwHQYDVR0lBBYwFAYIKwYBBQUH
AwIGCCsGAQUFBwMBMA0GCSqGSIb3DQEBCwUAA4IBAQCv6Fh6YqRCnwPNhBDOQLLF
P+kXpvSD9/ahJsRu0aUMG4JO1MKgGj3xakOagcX+RRrCdA8vOtnMPDkEdulFmJIP
ioeJwKGreM3YBdYWADfkVJAh5j9CjxKJrL7u2jiU7bhhXeTnvoQB/MJE/JmRMXtw
Gc15E11gh7nlFo/ZoT5LOcSel54LArBJnuBxOVVvbE34bMgu+4mDrRRWMAoO0tfZ
i3paNJaBO9IfRx5V15XJiTJxSOfjikUXfBbRJ0OFq5aPPhfj33Q66ocbznCYAxP5
b4WmjYtYWY/B/Y3CjbHEOehPGw7EHEpkHf1pT8wmirv8T0O9YnlHNXRIlbjb57Pz
-----END CERTIFICATE-----
