Certificate:
    Data:
        Version: 3 (0x2)
        Serial Number: 2 (0x2)
    Signature Algorithm: sha256WithRSAEncryption
        Issuer: C=PT, ST=Coimbra, L=Coimbra, O=UC, OU=DEI, CN=STI CA/emailAddress=alexx.da95@gmail.com
        Validity
            Not Before: Mar  8 16:17:40 2023 GMT
            Not After : Mar  7 16:17:40 2024 GMT
        Subject: C=PT, ST=Coimbra, O=UC, OU=DEI, CN=client/emailAddress=alexx.da95us@gmail.com
        Subject Public Key Info:
            Public Key Algorithm: rsaEncryption
                Public-Key: (2048 bit)
                Modulus:
                    00:ed:58:a4:ce:88:23:f5:c0:db:06:d9:24:e2:eb:
                    9c:7f:d9:20:e2:77:53:5c:09:79:fb:39:21:f8:3c:
                    fd:35:80:74:28:13:88:be:58:a5:1e:4c:fb:71:57:
                    1c:df:7f:51:40:02:39:51:a9:4b:e1:d5:86:c7:81:
                    52:5f:4c:0b:dd:f4:4b:1e:f5:67:87:06:4c:0f:dc:
                    2c:14:52:64:9e:50:35:28:f3:b2:f7:0c:c4:6e:3a:
                    56:16:2c:79:21:a9:b0:c9:68:7d:7d:49:7d:2c:a4:
                    2d:bb:bc:f8:42:e4:6e:1d:5f:ae:47:ba:48:8f:d5:
                    a4:61:8b:92:fb:bb:9b:b8:d0:67:1b:14:08:43:04:
                    40:40:8c:37:a0:41:12:4e:fc:c8:d8:d9:0c:d5:55:
                    e5:32:28:a3:7c:e9:04:54:92:3f:fc:93:f1:b5:f1:
                    36:50:c6:1a:72:ca:24:21:6f:20:d5:15:46:46:a6:
                    51:32:93:b0:b3:e7:7b:db:46:79:d2:46:12:c6:1d:
                    54:60:b3:fa:37:66:f0:1e:84:c7:09:b0:36:b8:2d:
                    91:a7:80:fb:9e:28:54:fd:2c:b7:2b:e7:e2:70:59:
                    61:a9:0a:78:fc:f3:2d:22:cb:ac:dd:82:df:0e:30:
                    a0:cb:40:be:e1:df:3b:ab:6a:af:55:ce:11:13:4b:
                    60:05
                Exponent: 65537 (0x10001)
        X509v3 extensions:
            Authority Information Access: 
                OCSP - URI:http://ocsp.dei.uc.pt:81

            X509v3 Basic Constraints: 
                CA:FALSE
            X509v3 Key Usage: 
                Digital Signature, Key Encipherment
            Netscape Comment: 
                OpenSSL Generated Certificate
            X509v3 Subject Key Identifier: 
                0D:B3:41:B4:4B:7F:78:38:23:36:A7:1C:A5:79:80:44:F8:F7:20:C5
            X509v3 Authority Key Identifier: 
                DirName:/C=PT/ST=Coimbra/L=Coimbra/O=UC/OU=DEI/CN=STI CA/emailAddress=alexx.da95@gmail.com
                serial:F0:C6:16:35:A9:06:30:01

            X509v3 Extended Key Usage: 
                TLS Web Client Authentication, TLS Web Server Authentication
    Signature Algorithm: sha256WithRSAEncryption
         a5:c1:21:2c:19:39:7f:25:fd:7d:bb:e2:a8:92:3b:7e:74:3a:
         5a:55:fe:5c:19:d7:57:57:a0:c9:f8:03:c8:1e:f6:6f:de:23:
         a8:24:b4:38:61:4c:07:13:2e:88:48:b9:d7:9e:96:bd:af:51:
         31:63:13:33:7a:f6:30:c4:a0:06:6a:37:69:40:03:42:e1:20:
         dc:48:6c:2a:06:f6:6d:1d:86:a9:fc:e3:31:34:07:56:ce:86:
         29:87:b3:b2:71:e7:af:9b:1c:cc:25:ba:22:b7:bf:8a:2d:9d:
         2e:86:14:5d:da:33:68:ac:7d:b2:51:a1:68:6c:ec:22:7c:e9:
         fd:03:bd:0e:34:49:2b:79:bd:cb:62:10:a8:55:3b:39:4e:93:
         69:54:e5:37:0a:52:4c:dc:79:0b:52:9e:b5:20:86:78:55:fa:
         63:e4:a2:50:98:9e:5b:4f:9f:99:5c:69:3c:ed:c8:11:ae:cd:
         f6:6c:2c:c7:90:40:16:35:6b:5a:53:1a:0b:1b:55:3a:11:d3:
         21:ec:75:c8:b5:6a:88:e6:45:7d:a9:74:4b:9c:20:f6:8b:1a:
         18:65:1a:d8:9a:98:28:03:12:35:e3:82:b9:6b:27:a5:81:ea:
         d7:63:ae:5c:c4:f5:13:e1:91:c0:f8:a9:94:3b:e5:90:2d:90:
         76:55:bb:76
-----BEGIN CERTIFICATE-----
MIIE1DCCA7ygAwIBAgIBAjANBgkqhkiG9w0BAQsFADCBgjELMAkGA1UEBhMCUFQx
EDAOBgNVBAgMB0NvaW1icmExEDAOBgNVBAcMB0NvaW1icmExCzAJBgNVBAoMAlVD
MQwwCgYDVQQLDANERUkxDzANBgNVBAMMBlNUSSBDQTEjMCEGCSqGSIb3DQEJARYU
YWxleHguZGE5NUBnbWFpbC5jb20wHhcNMjMwMzA4MTYxNzQwWhcNMjQwMzA3MTYx
NzQwWjByMQswCQYDVQQGEwJQVDEQMA4GA1UECAwHQ29pbWJyYTELMAkGA1UECgwC
VUMxDDAKBgNVBAsMA0RFSTEPMA0GA1UEAwwGY2xpZW50MSUwIwYJKoZIhvcNAQkB
FhZhbGV4eC5kYTk1dXNAZ21haWwuY29tMIIBIjANBgkqhkiG9w0BAQEFAAOCAQ8A
MIIBCgKCAQEA7Vikzogj9cDbBtkk4uucf9kg4ndTXAl5+zkh+Dz9NYB0KBOIvlil
Hkz7cVcc339RQAI5UalL4dWGx4FSX0wL3fRLHvVnhwZMD9wsFFJknlA1KPOy9wzE
bjpWFix5IamwyWh9fUl9LKQtu7z4QuRuHV+uR7pIj9WkYYuS+7ubuNBnGxQIQwRA
QIw3oEESTvzI2NkM1VXlMiijfOkEVJI//JPxtfE2UMYacsokIW8g1RVGRqZRMpOw
s+d720Z50kYSxh1UYLP6N2bwHoTHCbA2uC2Rp4D7nihU/Sy3K+ficFlhqQp4/PMt
Isus3YLfDjCgy0C+4d87q2qvVc4RE0tgBQIDAQABo4IBYjCCAV4wNAYIKwYBBQUH
AQEEKDAmMCQGCCsGAQUFBzABhhhodHRwOi8vb2NzcC5kZWkudWMucHQ6ODEwCQYD
VR0TBAIwADALBgNVHQ8EBAMCBaAwLAYJYIZIAYb4QgENBB8WHU9wZW5TU0wgR2Vu
ZXJhdGVkIENlcnRpZmljYXRlMB0GA1UdDgQWBBQNs0G0S394OCM2pxyleYBE+Pcg
xTCBoQYDVR0jBIGZMIGWoYGIpIGFMIGCMQswCQYDVQQGEwJQVDEQMA4GA1UECAwH
Q29pbWJyYTEQMA4GA1UEBwwHQ29pbWJyYTELMAkGA1UECgwCVUMxDDAKBgNVBAsM
A0RFSTEPMA0GA1UEAwwGU1RJIENBMSMwIQYJKoZIhvcNAQkBFhRhbGV4eC5kYTk1
QGdtYWlsLmNvbYIJAPDGFjWpBjABMB0GA1UdJQQWMBQGCCsGAQUFBwMCBggrBgEF
BQcDATANBgkqhkiG9w0BAQsFAAOCAQEApcEhLBk5fyX9fbviqJI7fnQ6WlX+XBnX
V1egyfgDyB72b94jqCS0OGFMBxMuiEi5156Wva9RMWMTM3r2MMSgBmo3aUADQuEg
3EhsKgb2bR2GqfzjMTQHVs6GKYezsnHnr5sczCW6Ire/ii2dLoYUXdozaKx9slGh
aGzsInzp/QO9DjRJK3m9y2IQqFU7OU6TaVTlNwpSTNx5C1KetSCGeFX6Y+SiUJie
W0+fmVxpPO3IEa7N9mwsx5BAFjVrWlMaCxtVOhHTIex1yLVqiOZFfal0S5wg9osa
GGUa2JqYKAMSNeOCuWsnpYHq12OuXMT1E+GRwPiplDvlkC2QdlW7dg==
-----END CERTIFICATE-----
