Certificate:
    Data:
        Version: 3 (0x2)
        Serial Number: 5 (0x5)
    Signature Algorithm: sha256WithRSAEncryption
        Issuer: C=PT, ST=Coimbra, L=Coimbra, O=UC, OU=DEI, CN=STI CA/emailAddress=alexx.da95@gmail.com
        Validity
            Not Before: Mar 10 18:12:58 2023 GMT
            Not After : Mar  9 18:12:58 2024 GMT
        Subject: C=PT, ST=Coimbra, O=UC, OU=DEI, CN=client_apache/emailAddress=alexx.da95@gmail.com
        Subject Public Key Info:
            Public Key Algorithm: rsaEncryption
                Public-Key: (2048 bit)
                Modulus:
                    00:e2:a1:4a:d8:38:cb:1e:31:98:e4:4d:4f:40:37:
                    f9:2a:27:41:0f:c8:38:39:03:fc:84:af:d1:07:d2:
                    a7:50:55:35:95:72:24:be:28:d7:04:72:0e:d1:8e:
                    c3:22:00:ca:40:eb:1c:5b:8e:13:14:81:12:75:c5:
                    f1:96:1f:30:04:35:fe:96:b3:84:25:7c:01:47:85:
                    fd:cb:0b:44:1c:5f:ab:cb:33:5d:3b:7f:cb:e1:75:
                    1d:92:49:80:b6:4c:1f:11:8a:36:08:41:9d:cc:39:
                    39:c7:08:2f:77:40:6b:16:f3:92:ec:c0:00:44:23:
                    78:e6:fc:6a:a3:92:c5:9f:3d:4d:29:2b:db:b6:dc:
                    c9:c2:1e:75:ae:49:e8:b6:75:0f:0a:c9:94:ab:ed:
                    16:be:9c:5e:79:33:1d:8a:44:d7:83:4b:87:a4:a1:
                    0f:a6:a8:0e:d5:51:93:ac:65:61:6e:8d:f3:7a:fb:
                    58:d6:19:b0:09:af:fd:56:5c:3a:fc:09:4f:46:5c:
                    58:73:10:d2:ab:01:5b:29:47:92:8f:34:a2:e8:2e:
                    a7:e2:f7:1e:a4:84:ba:c5:6e:a8:e3:9b:23:38:63:
                    19:21:31:f5:63:e8:fa:3b:d8:b2:30:b2:c5:53:22:
                    ad:c8:4e:cf:43:71:3f:16:05:ea:b9:18:4b:be:cd:
                    67:49
                Exponent: 65537 (0x10001)
        X509v3 extensions:
            Authority Information Access: 
                OCSP - URI:http://ocsp.dei.uc.pt:81

            X509v3 Basic Constraints: 
                CA:FALSE
            X509v3 Key Usage: 
                Digital Signature, Key Encipherment
            Netscape Comment: 
                OpenSSL Generated Certificate
            X509v3 Subject Key Identifier: 
                43:92:D1:3F:9F:D3:01:5D:61:EF:92:69:A8:92:DE:5D:07:77:A2:1B
            X509v3 Authority Key Identifier: 
                DirName:/C=PT/ST=Coimbra/L=Coimbra/O=UC/OU=DEI/CN=STI CA/emailAddress=alexx.da95@gmail.com
                serial:F0:C6:16:35:A9:06:30:01

            X509v3 Extended Key Usage: 
                TLS Web Client Authentication, TLS Web Server Authentication
    Signature Algorithm: sha256WithRSAEncryption
         80:ff:7b:9a:c2:48:89:ad:86:0e:ad:87:f9:a0:74:ff:c7:71:
         61:a0:60:e0:d5:9f:35:96:cb:dd:4f:ea:57:95:93:1f:50:bc:
         f6:ef:26:04:fc:a9:97:bc:c3:96:26:2c:fe:81:fa:71:e5:ca:
         30:47:c8:5f:5d:17:f5:3c:cb:91:26:73:50:a5:cd:c0:b9:d6:
         e4:85:8c:88:ea:a7:a2:8d:c8:84:de:07:a4:d3:de:bf:29:c8:
         69:07:93:ca:6f:43:8b:d5:44:b4:1d:16:d2:e8:e8:e7:a5:35:
         27:f2:a5:c0:c8:64:0b:ec:1b:40:c5:2e:4c:2d:03:68:55:bf:
         fc:09:0e:92:d1:96:c4:13:e3:7c:45:4e:26:17:00:22:34:f5:
         0a:0f:65:24:e6:b6:0c:65:e2:e7:69:b3:c8:77:22:08:b6:02:
         39:e0:a3:e2:cf:5d:94:4d:88:a7:67:9d:a0:10:05:ec:a3:54:
         96:5a:75:3a:a8:99:35:0b:84:54:c9:78:67:28:cf:f3:82:d1:
         67:bd:0c:fd:cd:4a:31:5e:e9:b2:43:38:64:4e:f0:f9:27:7b:
         56:e8:f7:6d:bd:7c:bb:40:6e:18:c5:cb:ce:d7:05:a4:63:bb:
         0c:99:e2:08:06:66:3c:3a:29:3d:78:f8:36:13:20:5b:cb:8b:
         68:87:fe:03
-----BEGIN CERTIFICATE-----
MIIE2TCCA8GgAwIBAgIBBTANBgkqhkiG9w0BAQsFADCBgjELMAkGA1UEBhMCUFQx
EDAOBgNVBAgMB0NvaW1icmExEDAOBgNVBAcMB0NvaW1icmExCzAJBgNVBAoMAlVD
MQwwCgYDVQQLDANERUkxDzANBgNVBAMMBlNUSSBDQTEjMCEGCSqGSIb3DQEJARYU
YWxleHguZGE5NUBnbWFpbC5jb20wHhcNMjMwMzEwMTgxMjU4WhcNMjQwMzA5MTgx
MjU4WjB3MQswCQYDVQQGEwJQVDEQMA4GA1UECAwHQ29pbWJyYTELMAkGA1UECgwC
VUMxDDAKBgNVBAsMA0RFSTEWMBQGA1UEAwwNY2xpZW50X2FwYWNoZTEjMCEGCSqG
SIb3DQEJARYUYWxleHguZGE5NUBnbWFpbC5jb20wggEiMA0GCSqGSIb3DQEBAQUA
A4IBDwAwggEKAoIBAQDioUrYOMseMZjkTU9AN/kqJ0EPyDg5A/yEr9EH0qdQVTWV
ciS+KNcEcg7RjsMiAMpA6xxbjhMUgRJ1xfGWHzAENf6Ws4QlfAFHhf3LC0QcX6vL
M107f8vhdR2SSYC2TB8RijYIQZ3MOTnHCC93QGsW85LswABEI3jm/GqjksWfPU0p
K9u23MnCHnWuSei2dQ8KyZSr7Ra+nF55Mx2KRNeDS4ekoQ+mqA7VUZOsZWFujfN6
+1jWGbAJr/1WXDr8CU9GXFhzENKrAVspR5KPNKLoLqfi9x6khLrFbqjjmyM4Yxkh
MfVj6Po72LIwssVTIq3ITs9DcT8WBeq5GEu+zWdJAgMBAAGjggFiMIIBXjA0Bggr
BgEFBQcBAQQoMCYwJAYIKwYBBQUHMAGGGGh0dHA6Ly9vY3NwLmRlaS51Yy5wdDo4
MTAJBgNVHRMEAjAAMAsGA1UdDwQEAwIFoDAsBglghkgBhvhCAQ0EHxYdT3BlblNT
TCBHZW5lcmF0ZWQgQ2VydGlmaWNhdGUwHQYDVR0OBBYEFEOS0T+f0wFdYe+SaaiS
3l0Hd6IbMIGhBgNVHSMEgZkwgZahgYikgYUwgYIxCzAJBgNVBAYTAlBUMRAwDgYD
VQQIDAdDb2ltYnJhMRAwDgYDVQQHDAdDb2ltYnJhMQswCQYDVQQKDAJVQzEMMAoG
A1UECwwDREVJMQ8wDQYDVQQDDAZTVEkgQ0ExIzAhBgkqhkiG9w0BCQEWFGFsZXh4
LmRhOTVAZ21haWwuY29tggkA8MYWNakGMAEwHQYDVR0lBBYwFAYIKwYBBQUHAwIG
CCsGAQUFBwMBMA0GCSqGSIb3DQEBCwUAA4IBAQCA/3uawkiJrYYOrYf5oHT/x3Fh
oGDg1Z81lsvdT+pXlZMfULz27yYE/KmXvMOWJiz+gfpx5cowR8hfXRf1PMuRJnNQ
pc3AudbkhYyI6qeijciE3gek096/KchpB5PKb0OL1US0HRbS6OjnpTUn8qXAyGQL
7BtAxS5MLQNoVb/8CQ6S0ZbEE+N8RU4mFwAiNPUKD2Uk5rYMZeLnabPIdyIItgI5
4KPiz12UTYinZ52gEAXso1SWWnU6qJk1C4RUyXhnKM/zgtFnvQz9zUoxXumyQzhk
TvD5J3tW6PdtvXy7QG4YxcvO1wWkY7sMmeIIBmY8Oik9ePg2EyBby4toh/4D
-----END CERTIFICATE-----
